; Function Attrs: nounwind uwtable
define hidden zeroext i16 @zdp_parse_server_flags(ptr noundef %0, i32 noundef %1, ptr noundef %2, ptr noundef captures(none) %3) local_unnamed_addr #0 {
  %5 = load i32, ptr %3, align 4
  %6 = tail call zeroext i16 @tvb_get_letohs(ptr noundef %2, i32 noundef %5) #4
  %7 = load i32, ptr %3, align 4
  %8 = load i32, ptr @hf_zbee_zdp_server, align 4
  %9 = tail call ptr @proto_tree_add_bitmask_with_flags(ptr noundef %0, ptr noundef %2, i32 noundef %7, i32 noundef %8, i32 noundef %1, ptr noundef nonnull @zdp_parse_server_flags.server_flags, i32 noundef -2147483648, i32 noundef 1) #4
  %10 = load i32, ptr %3, align 4
  %11 = add i32 %10, 2
  store i32 %11, ptr %3, align 4
  ret i16 %6
}